target datalayout = "e-m:e-p270:32:32-p271:32:32-p272:64:64-i64:64-i128:128-f80:128-n8:16:32:64-S128"
target triple = "x86_64-pc-linux-gnu"

%struct.cmsDateTimeNumber = type { i16, i16, i16, i16, i16, i16 }
%struct.tm = type { i32, i32, i32, i32, i32, i32, i32, i32, i32, i64, ptr }

; Function Attrs: nounwind uwtable
define hidden zeroext i16 @_cmsAdjustEndianess16(i16 noundef zeroext %0) #0 {
  %2 = alloca i16, align 2
  %3 = alloca ptr, align 8
  %4 = alloca i8, align 1
  store i16 %0, ptr %2, align 2
  store ptr %2, ptr %3, align 8
  %5 = load ptr, ptr %3, align 8
  %6 = getelementptr inbounds i8, ptr %5, i64 0
  %7 = load i8, ptr %6, align 1
  store i8 %7, ptr %4, align 1
  %8 = load ptr, ptr %3, align 8
  %9 = getelementptr inbounds i8, ptr %8, i64 1
  %10 = load i8, ptr %9, align 1
  %11 = load ptr, ptr %3, align 8
  %12 = getelementptr inbounds i8, ptr %11, i64 0
  store i8 %10, ptr %12, align 1
  %13 = load i8, ptr %4, align 1
  %14 = load ptr, ptr %3, align 8
  %15 = getelementptr inbounds i8, ptr %14, i64 1
  store i8 %13, ptr %15, align 1
  %16 = load i16, ptr %2, align 2
  ret i16 %16
}

; Function Attrs: nounwind uwtable
define hidden void @_cmsEncodeDateTimeNumber(ptr noundef %0, ptr noundef %1) #0 {
  %3 = alloca ptr, align 8
  %4 = alloca ptr, align 8
  store ptr %0, ptr %3, align 8
  store ptr %1, ptr %4, align 8
  %5 = load ptr, ptr %4, align 8
  %6 = getelementptr inbounds %struct.tm, ptr %5, i32 0, i32 0
  %7 = load i32, ptr %6, align 8
  %8 = trunc i32 %7 to i16
  %9 = call zeroext i16 @_cmsAdjustEndianess16(i16 noundef zeroext %8)
  %10 = load ptr, ptr %3, align 8
  %11 = getelementptr inbounds %struct.cmsDateTimeNumber, ptr %10, i32 0, i32 5
  store i16 %9, ptr %11, align 2
  %12 = load ptr, ptr %4, align 8
  %13 = getelementptr inbounds %struct.tm, ptr %12, i32 0, i32 1
  %14 = load i32, ptr %13, align 4
  %15 = trunc i32 %14 to i16
  %16 = call zeroext i16 @_cmsAdjustEndianess16(i16 noundef zeroext %15)
  %17 = load ptr, ptr %3, align 8
  %18 = getelementptr inbounds %struct.cmsDateTimeNumber, ptr %17, i32 0, i32 4
  store i16 %16, ptr %18, align 2
  %19 = load ptr, ptr %4, align 8
  %20 = getelementptr inbounds %struct.tm, ptr %19, i32 0, i32 2
  %21 = load i32, ptr %20, align 8
  %22 = trunc i32 %21 to i16
  %23 = call zeroext i16 @_cmsAdjustEndianess16(i16 noundef zeroext %22)
  %24 = load ptr, ptr %3, align 8
  %25 = getelementptr inbounds %struct.cmsDateTimeNumber, ptr %24, i32 0, i32 3
  store i16 %23, ptr %25, align 2
  %26 = load ptr, ptr %4, align 8
  %27 = getelementptr inbounds %struct.tm, ptr %26, i32 0, i32 3
  %28 = load i32, ptr %27, align 4
  %29 = trunc i32 %28 to i16
  %30 = call zeroext i16 @_cmsAdjustEndianess16(i16 noundef zeroext %29)
  %31 = load ptr, ptr %3, align 8
  %32 = getelementptr inbounds %struct.cmsDateTimeNumber, ptr %31, i32 0, i32 2
  store i16 %30, ptr %32, align 2
  %33 = load ptr, ptr %4, align 8
  %34 = getelementptr inbounds %struct.tm, ptr %33, i32 0, i32 4
  %35 = load i32, ptr %34, align 8
  %36 = add nsw i32 %35, 1
  %37 = trunc i32 %36 to i16
  %38 = call zeroext i16 @_cmsAdjustEndianess16(i16 noundef zeroext %37)
  %39 = load ptr, ptr %3, align 8
  %40 = getelementptr inbounds %struct.cmsDateTimeNumber, ptr %39, i32 0, i32 1
  store i16 %38, ptr %40, align 2
  %41 = load ptr, ptr %4, align 8
  %42 = getelementptr inbounds %struct.tm, ptr %41, i32 0, i32 5
  %43 = load i32, ptr %42, align 4
  %44 = add nsw i32 %43, 1900
  %45 = trunc i32 %44 to i16
  %46 = call zeroext i16 @_cmsAdjustEndianess16(i16 noundef zeroext %45)
  %47 = load ptr, ptr %3, align 8
  %48 = getelementptr inbounds %struct.cmsDateTimeNumber, ptr %47, i32 0, i32 0
  store i16 %46, ptr %48, align 2
  ret void
}