; Function Attrs: mustprogress nofree norecurse nosync nounwind willreturn memory(argmem: readwrite) uwtable
define hidden void @_cmsEncodeDateTimeNumber(ptr nocapture noundef writeonly %0, ptr nocapture noundef readonly %1) local_unnamed_addr #1 {
  %3 = load i32, ptr %1, align 8
  %4 = trunc i32 %3 to i16
  %.sroa.0.0.insert.insert.i = tail call noundef i16 @llvm.bswap.i16(i16 %4)
  %5 = getelementptr inbounds i8, ptr %0, i64 10
  store i16 %.sroa.0.0.insert.insert.i, ptr %5, align 2
  %6 = getelementptr inbounds i8, ptr %1, i64 4
  %7 = load i32, ptr %6, align 4
  %8 = trunc i32 %7 to i16
  %.sroa.0.0.insert.insert.i12 = tail call noundef i16 @llvm.bswap.i16(i16 %8)
  %9 = getelementptr inbounds i8, ptr %0, i64 8
  store i16 %.sroa.0.0.insert.insert.i12, ptr %9, align 2
  %10 = getelementptr inbounds i8, ptr %1, i64 8
  %11 = load i32, ptr %10, align 8
  %12 = trunc i32 %11 to i16
  %.sroa.0.0.insert.insert.i13 = tail call noundef i16 @llvm.bswap.i16(i16 %12)
  %13 = getelementptr inbounds i8, ptr %0, i64 6
  store i16 %.sroa.0.0.insert.insert.i13, ptr %13, align 2
  %14 = getelementptr inbounds i8, ptr %1, i64 12
  %15 = load i32, ptr %14, align 4
  %16 = trunc i32 %15 to i16
  %.sroa.0.0.insert.insert.i14 = tail call noundef i16 @llvm.bswap.i16(i16 %16)
  %17 = getelementptr inbounds i8, ptr %0, i64 4
  store i16 %.sroa.0.0.insert.insert.i14, ptr %17, align 2
  %18 = getelementptr inbounds i8, ptr %1, i64 16
  %19 = load i32, ptr %18, align 8
  %20 = trunc i32 %19 to i16
  %21 = add i16 %20, 1
  %.sroa.0.0.insert.insert.i15 = tail call noundef i16 @llvm.bswap.i16(i16 %21)
  %22 = getelementptr inbounds i8, ptr %0, i64 2
  store i16 %.sroa.0.0.insert.insert.i15, ptr %22, align 2
  %23 = getelementptr inbounds i8, ptr %1, i64 20
  %24 = load i32, ptr %23, align 4
  %25 = trunc i32 %24 to i16
  %26 = add i16 %25, 1900
  %.sroa.0.0.insert.insert.i16 = tail call noundef i16 @llvm.bswap.i16(i16 %26)
  store i16 %.sroa.0.0.insert.insert.i16, ptr %0, align 2
  ret void
}